target datalayout = "e-m:e-p270:32:32-p271:32:32-p272:64:64-i64:64-i128:128-f80:128-n8:16:32:64-S128"
target triple = "x86_64-pc-linux-gnu"

@hf_cigi3_hat_hot_extended_response_hat_hot_id = internal global i32 0, align 4
@hf_cigi3_hat_hot_extended_response_valid = internal global i32 0, align 4
@hf_cigi3_hat_hot_extended_response_hat = internal global i32 0, align 4
@hf_cigi3_hat_hot_extended_response_hot = internal global i32 0, align 4
@hf_cigi3_hat_hot_extended_response_material_code = internal global i32 0, align 4
@hf_cigi3_hat_hot_extended_response_normal_vector_azimuth = internal global i32 0, align 4
@hf_cigi3_hat_hot_extended_response_normal_vector_elevation = internal global i32 0, align 4
@hf_cigi3_2_hat_hot_extended_response_host_frame_number_lsn = internal global i32 0, align 4
@hf_cigi4_hat_hot_extended_response_flags = internal global i32 0, align 4
@ett_cigi4_hat_hot_extended_response_flags = internal global i32 0, align 4
@cigi_byte_order = internal global i32 0, align 4
@cigi_minor_version = internal global i32 0, align 4

; Function Attrs: null_pointer_is_valid sspstrong uwtable
define internal i32 @cigi3_add_hat_hot_extended_response(ptr noundef %0, ptr noundef %1, ptr noundef %2, ptr noundef %3) #0 {
  %5 = alloca ptr, align 8
  %6 = alloca ptr, align 8
  %7 = alloca ptr, align 8
  %8 = alloca ptr, align 8
  %9 = alloca ptr, align 8
  %10 = alloca ptr, align 8
  %11 = alloca i32, align 4
  store ptr %0, ptr %5, align 8
  store ptr %1, ptr %6, align 8
  store ptr %2, ptr %7, align 8
  store ptr %3, ptr %8, align 8
  call void @llvm.lifetime.start.p0(i64 8, ptr %9) #5
  call void @llvm.lifetime.start.p0(i64 8, ptr %10) #5
  call void @llvm.lifetime.start.p0(i64 4, ptr %11) #5
  store i32 0, ptr %11, align 4
  %12 = load ptr, ptr %7, align 8
  %13 = load i32, ptr @hf_cigi3_hat_hot_extended_response_hat_hot_id, align 4
  %14 = load ptr, ptr %5, align 8
  %15 = load i32, ptr %11, align 4
  %16 = load i32, ptr @cigi_byte_order, align 4
  %17 = call ptr @proto_tree_add_item(ptr noundef %12, i32 noundef %13, ptr noundef %14, i32 noundef %15, i32 noundef 2, i32 noundef %16)
  %18 = load i32, ptr %11, align 4
  %19 = add i32 %18, 2
  store i32 %19, ptr %11, align 4
  %20 = load ptr, ptr %7, align 8
  %21 = load i32, ptr @hf_cigi4_hat_hot_extended_response_flags, align 4
  %22 = load ptr, ptr %5, align 8
  %23 = load i32, ptr %11, align 4
  %24 = load i32, ptr @cigi_byte_order, align 4
  %25 = call ptr @proto_tree_add_item(ptr noundef %20, i32 noundef %21, ptr noundef %22, i32 noundef %23, i32 noundef 1, i32 noundef %24)
  store ptr %25, ptr %10, align 8
  %26 = load ptr, ptr %10, align 8
  %27 = load i32, ptr @ett_cigi4_hat_hot_extended_response_flags, align 4
  %28 = call ptr @proto_item_add_subtree(ptr noundef %26, i32 noundef %27)
  store ptr %28, ptr %9, align 8
  %29 = load ptr, ptr %9, align 8
  %30 = load i32, ptr @hf_cigi3_hat_hot_extended_response_valid, align 4
  %31 = load ptr, ptr %5, align 8
  %32 = load i32, ptr %11, align 4
  %33 = load i32, ptr @cigi_byte_order, align 4
  %34 = call ptr @proto_tree_add_item(ptr noundef %29, i32 noundef %30, ptr noundef %31, i32 noundef %32, i32 noundef 1, i32 noundef %33)
  %35 = load i32, ptr @cigi_minor_version, align 4
  %36 = icmp sge i32 %35, 2
  br i1 %36, label %37, label %44

37:                                               ; preds = %4
  %38 = load ptr, ptr %9, align 8
  %39 = load i32, ptr @hf_cigi3_2_hat_hot_extended_response_host_frame_number_lsn, align 4
  %40 = load ptr, ptr %5, align 8
  %41 = load i32, ptr %11, align 4
  %42 = load i32, ptr @cigi_byte_order, align 4
  %43 = call ptr @proto_tree_add_item(ptr noundef %38, i32 noundef %39, ptr noundef %40, i32 noundef %41, i32 noundef 1, i32 noundef %42)
  br label %44

44:                                               ; preds = %37, %4
  %45 = load i32, ptr %11, align 4
  %46 = add i32 %45, 4
  store i32 %46, ptr %11, align 4
  %47 = load ptr, ptr %7, align 8
  %48 = load i32, ptr @hf_cigi3_hat_hot_extended_response_hat, align 4
  %49 = load ptr, ptr %5, align 8
  %50 = load i32, ptr %11, align 4
  %51 = load i32, ptr @cigi_byte_order, align 4
  %52 = call ptr @proto_tree_add_item(ptr noundef %47, i32 noundef %48, ptr noundef %49, i32 noundef %50, i32 noundef 8, i32 noundef %51)
  %53 = load i32, ptr %11, align 4
  %54 = add i32 %53, 8
  store i32 %54, ptr %11, align 4
  %55 = load ptr, ptr %7, align 8
  %56 = load i32, ptr @hf_cigi3_hat_hot_extended_response_hot, align 4
  %57 = load ptr, ptr %5, align 8
  %58 = load i32, ptr %11, align 4
  %59 = load i32, ptr @cigi_byte_order, align 4
  %60 = call ptr @proto_tree_add_item(ptr noundef %55, i32 noundef %56, ptr noundef %57, i32 noundef %58, i32 noundef 8, i32 noundef %59)
  %61 = load i32, ptr %11, align 4
  %62 = add i32 %61, 8
  store i32 %62, ptr %11, align 4
  %63 = load ptr, ptr %7, align 8
  %64 = load i32, ptr @hf_cigi3_hat_hot_extended_response_material_code, align 4
  %65 = load ptr, ptr %5, align 8
  %66 = load i32, ptr %11, align 4
  %67 = load i32, ptr @cigi_byte_order, align 4
  %68 = call ptr @proto_tree_add_item(ptr noundef %63, i32 noundef %64, ptr noundef %65, i32 noundef %66, i32 noundef 4, i32 noundef %67)
  %69 = load i32, ptr %11, align 4
  %70 = add i32 %69, 4
  store i32 %70, ptr %11, align 4
  %71 = load ptr, ptr %7, align 8
  %72 = load i32, ptr @hf_cigi3_hat_hot_extended_response_normal_vector_azimuth, align 4
  %73 = load ptr, ptr %5, align 8
  %74 = load i32, ptr %11, align 4
  %75 = load i32, ptr @cigi_byte_order, align 4
  %76 = call ptr @proto_tree_add_item(ptr noundef %71, i32 noundef %72, ptr noundef %73, i32 noundef %74, i32 noundef 4, i32 noundef %75)
  %77 = load i32, ptr %11, align 4
  %78 = add i32 %77, 4
  store i32 %78, ptr %11, align 4
  %79 = load ptr, ptr %7, align 8
  %80 = load i32, ptr @hf_cigi3_hat_hot_extended_response_normal_vector_elevation, align 4
  %81 = load ptr, ptr %5, align 8
  %82 = load i32, ptr %11, align 4
  %83 = load i32, ptr @cigi_byte_order, align 4
  %84 = call ptr @proto_tree_add_item(ptr noundef %79, i32 noundef %80, ptr noundef %81, i32 noundef %82, i32 noundef 4, i32 noundef %83)
  %85 = load i32, ptr %11, align 4
  %86 = add i32 %85, 8
  store i32 %86, ptr %11, align 4
  %87 = load i32, ptr %11, align 4
  call void @llvm.lifetime.end.p0(i64 4, ptr %11) #5
  call void @llvm.lifetime.end.p0(i64 8, ptr %10) #5
  call void @llvm.lifetime.end.p0(i64 8, ptr %9) #5
  ret i32 %87
}