; Function Attrs: null_pointer_is_valid sspstrong uwtable
define internal noundef i32 @cigi3_add_hat_hot_extended_response(ptr noundef %0, ptr readnone captures(none) %1, ptr noundef %2, ptr readnone captures(none) %3) #0 {
  %5 = load i32, ptr @hf_cigi3_hat_hot_extended_response_hat_hot_id, align 4
  %.b42 = load i1, ptr @cigi_byte_order, align 4
  %6 = select i1 %.b42, i32 -2147483648, i32 0
  %7 = tail call ptr @proto_tree_add_item(ptr noundef %2, i32 noundef %5, ptr noundef %0, i32 noundef 0, i32 noundef 2, i32 noundef %6)
  %8 = load i32, ptr @hf_cigi4_hat_hot_extended_response_flags, align 4
  %.b41 = load i1, ptr @cigi_byte_order, align 4
  %9 = select i1 %.b41, i32 -2147483648, i32 0
  %10 = tail call ptr @proto_tree_add_item(ptr noundef %2, i32 noundef %8, ptr noundef %0, i32 noundef 2, i32 noundef 1, i32 noundef %9)
  %11 = load i32, ptr @ett_cigi4_hat_hot_extended_response_flags, align 4
  %12 = tail call ptr @proto_item_add_subtree(ptr noundef %10, i32 noundef %11)
  %13 = load i32, ptr @hf_cigi3_hat_hot_extended_response_valid, align 4
  %.b40 = load i1, ptr @cigi_byte_order, align 4
  %14 = select i1 %.b40, i32 -2147483648, i32 0
  %15 = tail call ptr @proto_tree_add_item(ptr noundef %12, i32 noundef %13, ptr noundef %0, i32 noundef 2, i32 noundef 1, i32 noundef %14)
  %16 = load i32, ptr @cigi_minor_version, align 4
  %17 = icmp sgt i32 %16, 1
  br i1 %17, label %18, label %22

18:                                               ; preds = %4
  %19 = load i32, ptr @hf_cigi3_2_hat_hot_extended_response_host_frame_number_lsn, align 4
  %.b39 = load i1, ptr @cigi_byte_order, align 4
  %20 = select i1 %.b39, i32 -2147483648, i32 0
  %21 = tail call ptr @proto_tree_add_item(ptr noundef %12, i32 noundef %19, ptr noundef %0, i32 noundef 2, i32 noundef 1, i32 noundef %20)
  br label %22

22:                                               ; preds = %18, %4
  %23 = load i32, ptr @hf_cigi3_hat_hot_extended_response_hat, align 4
  %.b38 = load i1, ptr @cigi_byte_order, align 4
  %24 = select i1 %.b38, i32 -2147483648, i32 0
  %25 = tail call ptr @proto_tree_add_item(ptr noundef %2, i32 noundef %23, ptr noundef %0, i32 noundef 6, i32 noundef 8, i32 noundef %24)
  %26 = load i32, ptr @hf_cigi3_hat_hot_extended_response_hot, align 4
  %.b37 = load i1, ptr @cigi_byte_order, align 4
  %27 = select i1 %.b37, i32 -2147483648, i32 0
  %28 = tail call ptr @proto_tree_add_item(ptr noundef %2, i32 noundef %26, ptr noundef %0, i32 noundef 14, i32 noundef 8, i32 noundef %27)
  %29 = load i32, ptr @hf_cigi3_hat_hot_extended_response_material_code, align 4
  %.b36 = load i1, ptr @cigi_byte_order, align 4
  %30 = select i1 %.b36, i32 -2147483648, i32 0
  %31 = tail call ptr @proto_tree_add_item(ptr noundef %2, i32 noundef %29, ptr noundef %0, i32 noundef 22, i32 noundef 4, i32 noundef %30)
  %32 = load i32, ptr @hf_cigi3_hat_hot_extended_response_normal_vector_azimuth, align 4
  %.b35 = load i1, ptr @cigi_byte_order, align 4
  %33 = select i1 %.b35, i32 -2147483648, i32 0
  %34 = tail call ptr @proto_tree_add_item(ptr noundef %2, i32 noundef %32, ptr noundef %0, i32 noundef 26, i32 noundef 4, i32 noundef %33)
  %35 = load i32, ptr @hf_cigi3_hat_hot_extended_response_normal_vector_elevation, align 4
  %.b = load i1, ptr @cigi_byte_order, align 4
  %36 = select i1 %.b, i32 -2147483648, i32 0
  %37 = tail call ptr @proto_tree_add_item(ptr noundef %2, i32 noundef %35, ptr noundef %0, i32 noundef 30, i32 noundef 4, i32 noundef %36)
  ret i32 38
}